target datalayout = "e-m:e-p270:32:32-p271:32:32-p272:64:64-i64:64-i128:128-f80:128-n8:16:32:64-S128"
target triple = "x86_64-pc-linux-gnu"

%"class.std::set" = type { %"class.std::_Rb_tree" }
%"class.std::_Rb_tree" = type { %"struct.std::_Rb_tree<pxrInternal_v0_24__pxrReserved__::TfToken, pxrInternal_v0_24__pxrReserved__::TfToken, std::_Identity<pxrInternal_v0_24__pxrReserved__::TfToken>, pxrInternal_v0_24__pxrReserved__::TfTokenFastArbitraryLessThan>::_Rb_tree_impl" }
%"struct.std::_Rb_tree<pxrInternal_v0_24__pxrReserved__::TfToken, pxrInternal_v0_24__pxrReserved__::TfToken, std::_Identity<pxrInternal_v0_24__pxrReserved__::TfToken>, pxrInternal_v0_24__pxrReserved__::TfTokenFastArbitraryLessThan>::_Rb_tree_impl" = type { [8 x i8], %"struct.std::_Rb_tree_header" }
%"struct.std::_Rb_tree_header" = type { %"struct.std::_Rb_tree_node_base", i64 }
%"struct.std::_Rb_tree_node_base" = type { i32, ptr, ptr, ptr }
%"class.pxrInternal_v0_24__pxrReserved__::PcpDynamicFileFormatDependencyData" = type { %"class.std::unique_ptr" }
%"class.std::unique_ptr" = type { %"struct.std::__uniq_ptr_data" }
%"struct.std::__uniq_ptr_data" = type { %"class.std::__uniq_ptr_impl" }
%"class.std::__uniq_ptr_impl" = type { %"class.std::tuple" }
%"class.std::tuple" = type { %"struct.std::_Tuple_impl" }
%"struct.std::_Tuple_impl" = type { %"struct.std::_Head_base.1" }
%"struct.std::_Head_base.1" = type { ptr }
%"struct.pxrInternal_v0_24__pxrReserved__::PcpDynamicFileFormatDependencyData::_Data" = type { %"class.std::vector", %"class.std::set", %"class.std::set" }
%"class.std::vector" = type { %"struct.std::_Vector_base" }
%"struct.std::_Vector_base" = type { %"struct.std::_Vector_base<std::pair<const pxrInternal_v0_24__pxrReserved__::PcpDynamicFileFormatInterface *, pxrInternal_v0_24__pxrReserved__::VtValue>, std::allocator<std::pair<const pxrInternal_v0_24__pxrReserved__::PcpDynamicFileFormatInterface *, pxrInternal_v0_24__pxrReserved__::VtValue>>>::_Vector_impl" }
%"struct.std::_Vector_base<std::pair<const pxrInternal_v0_24__pxrReserved__::PcpDynamicFileFormatInterface *, pxrInternal_v0_24__pxrReserved__::VtValue>, std::allocator<std::pair<const pxrInternal_v0_24__pxrReserved__::PcpDynamicFileFormatInterface *, pxrInternal_v0_24__pxrReserved__::VtValue>>>::_Vector_impl" = type { %"struct.std::_Vector_base<std::pair<const pxrInternal_v0_24__pxrReserved__::PcpDynamicFileFormatInterface *, pxrInternal_v0_24__pxrReserved__::VtValue>, std::allocator<std::pair<const pxrInternal_v0_24__pxrReserved__::PcpDynamicFileFormatInterface *, pxrInternal_v0_24__pxrReserved__::VtValue>>>::_Vector_impl_data" }
%"struct.std::_Vector_base<std::pair<const pxrInternal_v0_24__pxrReserved__::PcpDynamicFileFormatInterface *, pxrInternal_v0_24__pxrReserved__::VtValue>, std::allocator<std::pair<const pxrInternal_v0_24__pxrReserved__::PcpDynamicFileFormatInterface *, pxrInternal_v0_24__pxrReserved__::VtValue>>>::_Vector_impl_data" = type { ptr, ptr, ptr }

@_ZZNK32pxrInternal_v0_24__pxrReserved__34PcpDynamicFileFormatDependencyData21GetRelevantFieldNamesEvE5empty = internal global %"class.std::set" zeroinitializer, align 8
@_ZGVZNK32pxrInternal_v0_24__pxrReserved__34PcpDynamicFileFormatDependencyData21GetRelevantFieldNamesEvE5empty = internal global i64 0, align 8
@__dso_handle = external hidden global i8

; Function Attrs: mustprogress nounwind uwtable
define linkonce_odr noundef nonnull align 8 dereferenceable(8) ptr @_ZNSt10_Head_baseILm0EPN32pxrInternal_v0_24__pxrReserved__34PcpDynamicFileFormatDependencyData5_DataELb0EE7_M_headERKS4_(ptr noundef nonnull align 8 dereferenceable(8) %0) #1 comdat align 2 {
  %2 = alloca ptr, align 8
  store ptr %0, ptr %2, align 8
  %3 = load ptr, ptr %2, align 8
  %4 = getelementptr inbounds nuw %"struct.std::_Head_base.1", ptr %3, i32 0, i32 0
  ret ptr %4
}

; Function Attrs: mustprogress nounwind uwtable
define linkonce_odr noundef nonnull align 8 dereferenceable(8) ptr @_ZNSt11_Tuple_implILm0EJPN32pxrInternal_v0_24__pxrReserved__34PcpDynamicFileFormatDependencyData5_DataESt14default_deleteIS2_EEE7_M_headERKS6_(ptr noundef nonnull align 8 dereferenceable(8) %0) #1 comdat align 2 {
  %2 = alloca ptr, align 8
  store ptr %0, ptr %2, align 8
  %3 = load ptr, ptr %2, align 8
  %4 = call noundef nonnull align 8 dereferenceable(8) ptr @_ZNSt10_Head_baseILm0EPN32pxrInternal_v0_24__pxrReserved__34PcpDynamicFileFormatDependencyData5_DataELb0EE7_M_headERKS4_(ptr noundef nonnull align 8 dereferenceable(8) %3) #6
  ret ptr %4
}

; Function Attrs: mustprogress nounwind uwtable
define linkonce_odr noundef nonnull align 8 dereferenceable(8) ptr @_ZSt12__get_helperILm0EPN32pxrInternal_v0_24__pxrReserved__34PcpDynamicFileFormatDependencyData5_DataEJSt14default_deleteIS2_EEERKT0_RKSt11_Tuple_implIXT_EJS6_DpT1_EE(ptr noundef nonnull align 8 dereferenceable(8) %0) #1 comdat {
  %2 = alloca ptr, align 8
  store ptr %0, ptr %2, align 8
  %3 = load ptr, ptr %2, align 8
  %4 = call noundef nonnull align 8 dereferenceable(8) ptr @_ZNSt11_Tuple_implILm0EJPN32pxrInternal_v0_24__pxrReserved__34PcpDynamicFileFormatDependencyData5_DataESt14default_deleteIS2_EEE7_M_headERKS6_(ptr noundef nonnull align 8 dereferenceable(8) %3) #6
  ret ptr %4
}

; Function Attrs: noreturn nounwind uwtable
define linkonce_odr hidden void @__clang_call_terminate(ptr noundef %0) #7 comdat {
  %2 = call ptr @__cxa_begin_catch(ptr %0) #6
  call void @_ZSt9terminatev() #15
  unreachable
}

; Function Attrs: mustprogress nounwind uwtable
define linkonce_odr void @_ZNSt15_Rb_tree_header8_M_resetEv(ptr noundef nonnull align 8 dereferenceable(40) %0) #1 comdat align 2 {
  %2 = alloca ptr, align 8
  store ptr %0, ptr %2, align 8
  %3 = load ptr, ptr %2, align 8
  %4 = getelementptr inbounds nuw %"struct.std::_Rb_tree_header", ptr %3, i32 0, i32 0
  %5 = getelementptr inbounds nuw %"struct.std::_Rb_tree_node_base", ptr %4, i32 0, i32 1
  store ptr null, ptr %5, align 8
  %6 = getelementptr inbounds nuw %"struct.std::_Rb_tree_header", ptr %3, i32 0, i32 0
  %7 = getelementptr inbounds nuw %"struct.std::_Rb_tree_header", ptr %3, i32 0, i32 0
  %8 = getelementptr inbounds nuw %"struct.std::_Rb_tree_node_base", ptr %7, i32 0, i32 2
  store ptr %6, ptr %8, align 8
  %9 = getelementptr inbounds nuw %"struct.std::_Rb_tree_header", ptr %3, i32 0, i32 0
  %10 = getelementptr inbounds nuw %"struct.std::_Rb_tree_header", ptr %3, i32 0, i32 0
  %11 = getelementptr inbounds nuw %"struct.std::_Rb_tree_node_base", ptr %10, i32 0, i32 3
  store ptr %9, ptr %11, align 8
  %12 = getelementptr inbounds nuw %"struct.std::_Rb_tree_header", ptr %3, i32 0, i32 1
  store i64 0, ptr %12, align 8
  ret void
}

; Function Attrs: mustprogress nounwind uwtable
define linkonce_odr void @_ZNSt15__new_allocatorISt13_Rb_tree_nodeIN32pxrInternal_v0_24__pxrReserved__7TfTokenEEEC2Ev(ptr noundef nonnull align 1 dereferenceable(1) %0) unnamed_addr #1 comdat align 2 {
  %2 = alloca ptr, align 8
  store ptr %0, ptr %2, align 8
  ret void
}

; Function Attrs: mustprogress nounwind uwtable
define linkonce_odr noundef nonnull align 8 dereferenceable(8) ptr @_ZSt3getILm0EJPN32pxrInternal_v0_24__pxrReserved__34PcpDynamicFileFormatDependencyData5_DataESt14default_deleteIS2_EEERKNSt13tuple_elementIXT_ESt5tupleIJDpT0_EEE4typeERKSA_(ptr noundef nonnull align 8 dereferenceable(8) %0) #1 comdat {
  %2 = alloca ptr, align 8
  store ptr %0, ptr %2, align 8
  %3 = load ptr, ptr %2, align 8
  %4 = call noundef nonnull align 8 dereferenceable(8) ptr @_ZSt12__get_helperILm0EPN32pxrInternal_v0_24__pxrReserved__34PcpDynamicFileFormatDependencyData5_DataEJSt14default_deleteIS2_EEERKT0_RKSt11_Tuple_implIXT_EJS6_DpT1_EE(ptr noundef nonnull align 8 dereferenceable(8) %3) #6
  ret ptr %4
}

; Function Attrs: mustprogress nounwind uwtable
define linkonce_odr void @_ZNSt15_Rb_tree_headerC2Ev(ptr noundef nonnull align 8 dereferenceable(40) %0) unnamed_addr #1 comdat align 2 personality ptr @__gxx_personality_v0 {
  %2 = alloca ptr, align 8
  store ptr %0, ptr %2, align 8
  %3 = load ptr, ptr %2, align 8
  %4 = getelementptr inbounds nuw %"struct.std::_Rb_tree_header", ptr %3, i32 0, i32 0
  %5 = getelementptr inbounds nuw %"struct.std::_Rb_tree_node_base", ptr %4, i32 0, i32 0
  store i32 0, ptr %5, align 8
  invoke void @_ZNSt15_Rb_tree_header8_M_resetEv(ptr noundef nonnull align 8 dereferenceable(40) %3)
          to label %6 unwind label %7

6:                                                ; preds = %1
  ret void

7:                                                ; preds = %1
  %8 = landingpad { ptr, i32 }
          catch ptr null
  %9 = extractvalue { ptr, i32 } %8, 0
  call void @__clang_call_terminate(ptr %9) #15
  unreachable
}

; Function Attrs: mustprogress nounwind uwtable
define linkonce_odr void @_ZNSt20_Rb_tree_key_compareIN32pxrInternal_v0_24__pxrReserved__28TfTokenFastArbitraryLessThanEEC2Ev(ptr noundef nonnull align 1 dereferenceable(1) %0) unnamed_addr #1 comdat align 2 {
  %2 = alloca ptr, align 8
  store ptr %0, ptr %2, align 8
  ret void
}

; Function Attrs: mustprogress nounwind uwtable
define linkonce_odr void @_ZNSaISt13_Rb_tree_nodeIN32pxrInternal_v0_24__pxrReserved__7TfTokenEEEC2Ev(ptr noundef nonnull align 1 dereferenceable(1) %0) unnamed_addr #1 comdat align 2 {
  %2 = alloca ptr, align 8
  store ptr %0, ptr %2, align 8
  %3 = load ptr, ptr %2, align 8
  call void @_ZNSt15__new_allocatorISt13_Rb_tree_nodeIN32pxrInternal_v0_24__pxrReserved__7TfTokenEEEC2Ev(ptr noundef nonnull align 1 dereferenceable(1) %3) #6
  ret void
}

; Function Attrs: mustprogress nounwind uwtable
define linkonce_odr noundef ptr @_ZNKSt15__uniq_ptr_implIN32pxrInternal_v0_24__pxrReserved__34PcpDynamicFileFormatDependencyData5_DataESt14default_deleteIS2_EE6_M_ptrEv(ptr noundef nonnull align 8 dereferenceable(8) %0) #1 comdat align 2 {
  %2 = alloca ptr, align 8
  store ptr %0, ptr %2, align 8
  %3 = load ptr, ptr %2, align 8
  %4 = getelementptr inbounds nuw %"class.std::__uniq_ptr_impl", ptr %3, i32 0, i32 0
  %5 = call noundef nonnull align 8 dereferenceable(8) ptr @_ZSt3getILm0EJPN32pxrInternal_v0_24__pxrReserved__34PcpDynamicFileFormatDependencyData5_DataESt14default_deleteIS2_EEERKNSt13tuple_elementIXT_ESt5tupleIJDpT0_EEE4typeERKSA_(ptr noundef nonnull align 8 dereferenceable(8) %4) #6
  %6 = load ptr, ptr %5, align 8
  ret ptr %6
}

; Function Attrs: mustprogress nounwind uwtable
define linkonce_odr void @_ZNSt8_Rb_treeIN32pxrInternal_v0_24__pxrReserved__7TfTokenES1_St9_IdentityIS1_ENS0_28TfTokenFastArbitraryLessThanESaIS1_EE13_Rb_tree_implIS4_Lb1EEC2Ev(ptr noundef nonnull align 8 dereferenceable(48) %0) unnamed_addr #1 comdat align 2 {
  %2 = alloca ptr, align 8
  store ptr %0, ptr %2, align 8
  %3 = load ptr, ptr %2, align 8
  call void @_ZNSaISt13_Rb_tree_nodeIN32pxrInternal_v0_24__pxrReserved__7TfTokenEEEC2Ev(ptr noundef nonnull align 1 dereferenceable(1) %3) #6
  call void @_ZNSt20_Rb_tree_key_compareIN32pxrInternal_v0_24__pxrReserved__28TfTokenFastArbitraryLessThanEEC2Ev(ptr noundef nonnull align 1 dereferenceable(1) %3) #6
  %4 = getelementptr inbounds i8, ptr %3, i64 8
  call void @_ZNSt15_Rb_tree_headerC2Ev(ptr noundef nonnull align 8 dereferenceable(40) %4) #6
  ret void
}

; Function Attrs: mustprogress nounwind uwtable
define linkonce_odr noundef ptr @_ZNKSt10unique_ptrIN32pxrInternal_v0_24__pxrReserved__34PcpDynamicFileFormatDependencyData5_DataESt14default_deleteIS2_EE3getEv(ptr noundef nonnull align 8 dereferenceable(8) %0) #1 comdat align 2 {
  %2 = alloca ptr, align 8
  store ptr %0, ptr %2, align 8
  %3 = load ptr, ptr %2, align 8
  %4 = getelementptr inbounds nuw %"class.std::unique_ptr", ptr %3, i32 0, i32 0
  %5 = call noundef ptr @_ZNKSt15__uniq_ptr_implIN32pxrInternal_v0_24__pxrReserved__34PcpDynamicFileFormatDependencyData5_DataESt14default_deleteIS2_EE6_M_ptrEv(ptr noundef nonnull align 8 dereferenceable(8) %4) #6
  ret ptr %5
}

; Function Attrs: mustprogress nounwind uwtable
define linkonce_odr void @_ZNSt8_Rb_treeIN32pxrInternal_v0_24__pxrReserved__7TfTokenES1_St9_IdentityIS1_ENS0_28TfTokenFastArbitraryLessThanESaIS1_EEC2Ev(ptr noundef nonnull align 8 dereferenceable(48) %0) unnamed_addr #1 comdat align 2 {
  %2 = alloca ptr, align 8
  store ptr %0, ptr %2, align 8
  %3 = load ptr, ptr %2, align 8
  %4 = getelementptr inbounds nuw %"class.std::_Rb_tree", ptr %3, i32 0, i32 0
  call void @_ZNSt8_Rb_treeIN32pxrInternal_v0_24__pxrReserved__7TfTokenES1_St9_IdentityIS1_ENS0_28TfTokenFastArbitraryLessThanESaIS1_EE13_Rb_tree_implIS4_Lb1EEC2Ev(ptr noundef nonnull align 8 dereferenceable(48) %4) #6
  ret void
}

; Function Attrs: mustprogress nounwind uwtable
define linkonce_odr noundef ptr @_ZNKSt10unique_ptrIN32pxrInternal_v0_24__pxrReserved__34PcpDynamicFileFormatDependencyData5_DataESt14default_deleteIS2_EEptEv(ptr noundef nonnull align 8 dereferenceable(8) %0) #1 comdat align 2 {
  %2 = alloca ptr, align 8
  store ptr %0, ptr %2, align 8
  %3 = load ptr, ptr %2, align 8
  %4 = call noundef ptr @_ZNKSt10unique_ptrIN32pxrInternal_v0_24__pxrReserved__34PcpDynamicFileFormatDependencyData5_DataESt14default_deleteIS2_EE3getEv(ptr noundef nonnull align 8 dereferenceable(8) %3) #6
  ret ptr %4
}

; Function Attrs: mustprogress nounwind uwtable
define linkonce_odr noundef zeroext i1 @_ZNKSt10unique_ptrIN32pxrInternal_v0_24__pxrReserved__34PcpDynamicFileFormatDependencyData5_DataESt14default_deleteIS2_EEcvbEv(ptr noundef nonnull align 8 dereferenceable(8) %0) #1 comdat align 2 {
  %2 = alloca ptr, align 8
  store ptr %0, ptr %2, align 8
  %3 = load ptr, ptr %2, align 8
  %4 = call noundef ptr @_ZNKSt10unique_ptrIN32pxrInternal_v0_24__pxrReserved__34PcpDynamicFileFormatDependencyData5_DataESt14default_deleteIS2_EE3getEv(ptr noundef nonnull align 8 dereferenceable(8) %3) #6
  %5 = icmp eq ptr %4, null
  %6 = select i1 %5, i1 false, i1 true
  ret i1 %6
}

; Function Attrs: mustprogress nounwind uwtable
define linkonce_odr void @_ZNSt3setIN32pxrInternal_v0_24__pxrReserved__7TfTokenENS0_28TfTokenFastArbitraryLessThanESaIS1_EEC2Ev(ptr noundef nonnull align 8 dereferenceable(48) %0) unnamed_addr #1 comdat align 2 {
  %2 = alloca ptr, align 8
  store ptr %0, ptr %2, align 8
  %3 = load ptr, ptr %2, align 8
  %4 = getelementptr inbounds nuw %"class.std::set", ptr %3, i32 0, i32 0
  call void @_ZNSt8_Rb_treeIN32pxrInternal_v0_24__pxrReserved__7TfTokenES1_St9_IdentityIS1_ENS0_28TfTokenFastArbitraryLessThanESaIS1_EEC2Ev(ptr noundef nonnull align 8 dereferenceable(48) %4) #6
  ret void
}

; Function Attrs: mustprogress nounwind uwtable
define noundef nonnull align 8 dereferenceable(48) ptr @_ZNK32pxrInternal_v0_24__pxrReserved__34PcpDynamicFileFormatDependencyData21GetRelevantFieldNamesEv(ptr noundef nonnull align 8 dereferenceable(8) %0) #1 align 2 {
  %2 = alloca ptr, align 8
  store ptr %0, ptr %2, align 8
  %3 = load ptr, ptr %2, align 8
  %4 = load atomic i8, ptr @_ZGVZNK32pxrInternal_v0_24__pxrReserved__34PcpDynamicFileFormatDependencyData21GetRelevantFieldNamesEvE5empty acquire, align 8
  %5 = icmp eq i8 %4, 0
  br i1 %5, label %6, label %11, !prof !4

6:                                                ; preds = %1
  %7 = call i32 @__cxa_guard_acquire(ptr @_ZGVZNK32pxrInternal_v0_24__pxrReserved__34PcpDynamicFileFormatDependencyData21GetRelevantFieldNamesEvE5empty) #6
  %8 = icmp ne i32 %7, 0
  br i1 %8, label %9, label %11

9:                                                ; preds = %6
  call void @_ZNSt3setIN32pxrInternal_v0_24__pxrReserved__7TfTokenENS0_28TfTokenFastArbitraryLessThanESaIS1_EEC2Ev(ptr noundef nonnull align 8 dereferenceable(48) @_ZZNK32pxrInternal_v0_24__pxrReserved__34PcpDynamicFileFormatDependencyData21GetRelevantFieldNamesEvE5empty) #6
  %10 = call i32 @__cxa_atexit(ptr @_ZNSt3setIN32pxrInternal_v0_24__pxrReserved__7TfTokenENS0_28TfTokenFastArbitraryLessThanESaIS1_EED2Ev, ptr @_ZZNK32pxrInternal_v0_24__pxrReserved__34PcpDynamicFileFormatDependencyData21GetRelevantFieldNamesEvE5empty, ptr @__dso_handle) #6
  call void @__cxa_guard_release(ptr @_ZGVZNK32pxrInternal_v0_24__pxrReserved__34PcpDynamicFileFormatDependencyData21GetRelevantFieldNamesEvE5empty) #6
  br label %11

11:                                               ; preds = %9, %6, %1
  %12 = getelementptr inbounds nuw %"class.pxrInternal_v0_24__pxrReserved__::PcpDynamicFileFormatDependencyData", ptr %3, i32 0, i32 0
  %13 = call noundef zeroext i1 @_ZNKSt10unique_ptrIN32pxrInternal_v0_24__pxrReserved__34PcpDynamicFileFormatDependencyData5_DataESt14default_deleteIS2_EEcvbEv(ptr noundef nonnull align 8 dereferenceable(8) %12) #6
  br i1 %13, label %14, label %18

14:                                               ; preds = %11
  %15 = getelementptr inbounds nuw %"class.pxrInternal_v0_24__pxrReserved__::PcpDynamicFileFormatDependencyData", ptr %3, i32 0, i32 0
  %16 = call noundef ptr @_ZNKSt10unique_ptrIN32pxrInternal_v0_24__pxrReserved__34PcpDynamicFileFormatDependencyData5_DataESt14default_deleteIS2_EEptEv(ptr noundef nonnull align 8 dereferenceable(8) %15) #6
  %17 = getelementptr inbounds nuw %"struct.pxrInternal_v0_24__pxrReserved__::PcpDynamicFileFormatDependencyData::_Data", ptr %16, i32 0, i32 1
  br label %19

18:                                               ; preds = %11
  br label %19

19:                                               ; preds = %18, %14
  %20 = phi ptr [ %17, %14 ], [ @_ZZNK32pxrInternal_v0_24__pxrReserved__34PcpDynamicFileFormatDependencyData21GetRelevantFieldNamesEvE5empty, %18 ]
  ret ptr %20
}